; ModuleID = '5/362.c'
source_filename = "5/362.c"
target datalayout = "e-m:e-p270:32:32-p271:32:32-p272:64:64-i64:64-f80:128-n8:16:32:64-S128"
target triple = "x86_64-pc-linux-gnu"

@.str = private unnamed_addr constant [4 x i8] c"%lf\00", align 1
@.str.1 = private unnamed_addr constant [3 x i8] c"%s\00", align 1
@.str.2 = private unnamed_addr constant [6 x i8] c"error\00", align 1
@.str.3 = private unnamed_addr constant [4 x i8] c"yes\00", align 1
@.str.4 = private unnamed_addr constant [3 x i8] c"no\00", align 1

; Function Attrs: noinline nounwind uwtable
define dso_local i32 @main() #0 {
  %1 = alloca i32, align 4
  %2 = alloca i32, align 4
  %3 = alloca i32, align 4
  %4 = alloca i32, align 4
  %5 = alloca i32, align 4
  %6 = alloca double, align 8
  %7 = alloca [510 x i8], align 16
  %8 = alloca [510 x i8], align 16
  store i32 0, i32* %1, align 4
  store i32 0, i32* %2, align 4
  store i32 0, i32* %5, align 4
  %9 = call i32 (i8*, ...) @__isoc99_scanf(i8* getelementptr inbounds ([4 x i8], [4 x i8]* @.str, i64 0, i64 0), double* %6)
  %10 = getelementptr inbounds [510 x i8], [510 x i8]* %7, i64 0, i64 0
  %11 = call i32 (i8*, ...) @__isoc99_scanf(i8* getelementptr inbounds ([3 x i8], [3 x i8]* @.str.1, i64 0, i64 0), i8* %10)
  store i32 0, i32* %3, align 4
  br label %12

12:                                               ; preds = %49, %0
  %13 = load i32, i32* %3, align 4
  %14 = sext i32 %13 to i64
  %15 = getelementptr inbounds [510 x i8], [510 x i8]* %7, i64 0, i64 %14
  %16 = load i8, i8* %15, align 1
  %17 = sext i8 %16 to i32
  %18 = icmp ne i32 %17, 0
  br i1 %18, label %19, label %52

19:                                               ; preds = %12
  %20 = load i32, i32* %3, align 4
  %21 = sext i32 %20 to i64
  %22 = getelementptr inbounds [510 x i8], [510 x i8]* %7, i64 0, i64 %21
  %23 = load i8, i8* %22, align 1
  %24 = sext i8 %23 to i32
  %25 = icmp ne i32 %24, 65
  br i1 %25, label %26, label %48

26:                                               ; preds = %19
  %27 = load i32, i32* %3, align 4
  %28 = sext i32 %27 to i64
  %29 = getelementptr inbounds [510 x i8], [510 x i8]* %7, i64 0, i64 %28
  %30 = load i8, i8* %29, align 1
  %31 = sext i8 %30 to i32
  %32 = icmp ne i32 %31, 84
  br i1 %32, label %33, label %48

33:                                               ; preds = %26
  %34 = load i32, i32* %3, align 4
  %35 = sext i32 %34 to i64
  %36 = getelementptr inbounds [510 x i8], [510 x i8]* %7, i64 0, i64 %35
  %37 = load i8, i8* %36, align 1
  %38 = sext i8 %37 to i32
  %39 = icmp ne i32 %38, 67
  br i1 %39, label %40, label %48

40:                                               ; preds = %33
  %41 = load i32, i32* %3, align 4
  %42 = sext i32 %41 to i64
  %43 = getelementptr inbounds [510 x i8], [510 x i8]* %7, i64 0, i64 %42
  %44 = load i8, i8* %43, align 1
  %45 = sext i8 %44 to i32
  %46 = icmp ne i32 %45, 71
  br i1 %46, label %47, label %48

47:                                               ; preds = %40
  store i32 1, i32* %2, align 4
  br label %48

48:                                               ; preds = %47, %40, %33, %26, %19
  br label %49

49:                                               ; preds = %48
  %50 = load i32, i32* %3, align 4
  %51 = add nsw i32 %50, 1
  store i32 %51, i32* %3, align 4
  br label %12

52:                                               ; preds = %12
  %53 = getelementptr inbounds [510 x i8], [510 x i8]* %8, i64 0, i64 0
  %54 = call i32 (i8*, ...) @__isoc99_scanf(i8* getelementptr inbounds ([3 x i8], [3 x i8]* @.str.1, i64 0, i64 0), i8* %53)
  store i32 0, i32* %3, align 4
  br label %55

55:                                               ; preds = %92, %52
  %56 = load i32, i32* %3, align 4
  %57 = sext i32 %56 to i64
  %58 = getelementptr inbounds [510 x i8], [510 x i8]* %8, i64 0, i64 %57
  %59 = load i8, i8* %58, align 1
  %60 = sext i8 %59 to i32
  %61 = icmp ne i32 %60, 0
  br i1 %61, label %62, label %95

62:                                               ; preds = %55
  %63 = load i32, i32* %3, align 4
  %64 = sext i32 %63 to i64
  %65 = getelementptr inbounds [510 x i8], [510 x i8]* %8, i64 0, i64 %64
  %66 = load i8, i8* %65, align 1
  %67 = sext i8 %66 to i32
  %68 = icmp ne i32 %67, 65
  br i1 %68, label %69, label %91

69:                                               ; preds = %62
  %70 = load i32, i32* %3, align 4
  %71 = sext i32 %70 to i64
  %72 = getelementptr inbounds [510 x i8], [510 x i8]* %8, i64 0, i64 %71
  %73 = load i8, i8* %72, align 1
  %74 = sext i8 %73 to i32
  %75 = icmp ne i32 %74, 84
  br i1 %75, label %76, label %91

76:                                               ; preds = %69
  %77 = load i32, i32* %3, align 4
  %78 = sext i32 %77 to i64
  %79 = getelementptr inbounds [510 x i8], [510 x i8]* %8, i64 0, i64 %78
  %80 = load i8, i8* %79, align 1
  %81 = sext i8 %80 to i32
  %82 = icmp ne i32 %81, 67
  br i1 %82, label %83, label %91

83:                                               ; preds = %76
  %84 = load i32, i32* %3, align 4
  %85 = sext i32 %84 to i64
  %86 = getelementptr inbounds [510 x i8], [510 x i8]* %8, i64 0, i64 %85
  %87 = load i8, i8* %86, align 1
  %88 = sext i8 %87 to i32
  %89 = icmp ne i32 %88, 71
  br i1 %89, label %90, label %91

90:                                               ; preds = %83
  store i32 1, i32* %2, align 4
  br label %91

91:                                               ; preds = %90, %83, %76, %69, %62
  br label %92

92:                                               ; preds = %91
  %93 = load i32, i32* %3, align 4
  %94 = add nsw i32 %93, 1
  store i32 %94, i32* %3, align 4
  br label %55

95:                                               ; preds = %55
  %96 = getelementptr inbounds [510 x i8], [510 x i8]* %7, i64 0, i64 0
  %97 = call i64 @strlen(i8* %96) #3
  %98 = getelementptr inbounds [510 x i8], [510 x i8]* %8, i64 0, i64 0
  %99 = call i64 @strlen(i8* %98) #3
  %100 = icmp ne i64 %97, %99
  br i1 %100, label %104, label %101

101:                                              ; preds = %95
  %102 = load i32, i32* %2, align 4
  %103 = icmp eq i32 %102, 1
  br i1 %103, label %104, label %106

104:                                              ; preds = %101, %95
  %105 = call i32 (i8*, ...) @printf(i8* getelementptr inbounds ([6 x i8], [6 x i8]* @.str.2, i64 0, i64 0))
  store i32 0, i32* %1, align 4
  br label %147

106:                                              ; preds = %101
  %107 = getelementptr inbounds [510 x i8], [510 x i8]* %7, i64 0, i64 0
  %108 = call i64 @strlen(i8* %107) #3
  %109 = trunc i64 %108 to i32
  store i32 %109, i32* %4, align 4
  store i32 0, i32* %3, align 4
  br label %110

110:                                              ; preds = %130, %106
  %111 = load i32, i32* %3, align 4
  %112 = load i32, i32* %4, align 4
  %113 = icmp slt i32 %111, %112
  br i1 %113, label %114, label %133

114:                                              ; preds = %110
  %115 = load i32, i32* %3, align 4
  %116 = sext i32 %115 to i64
  %117 = getelementptr inbounds [510 x i8], [510 x i8]* %7, i64 0, i64 %116
  %118 = load i8, i8* %117, align 1
  %119 = sext i8 %118 to i32
  %120 = load i32, i32* %3, align 4
  %121 = sext i32 %120 to i64
  %122 = getelementptr inbounds [510 x i8], [510 x i8]* %8, i64 0, i64 %121
  %123 = load i8, i8* %122, align 1
  %124 = sext i8 %123 to i32
  %125 = icmp eq i32 %119, %124
  br i1 %125, label %126, label %129

126:                                              ; preds = %114
  %127 = load i32, i32* %5, align 4
  %128 = add nsw i32 %127, 1
  store i32 %128, i32* %5, align 4
  br label %129

129:                                              ; preds = %126, %114
  br label %130

130:                                              ; preds = %129
  %131 = load i32, i32* %3, align 4
  %132 = add nsw i32 %131, 1
  store i32 %132, i32* %3, align 4
  br label %110

133:                                              ; preds = %110
  %134 = load i32, i32* %5, align 4
  %135 = sitofp i32 %134 to double
  %136 = fmul double 1.000000e+00, %135
  %137 = load i32, i32* %4, align 4
  %138 = sitofp i32 %137 to double
  %139 = fdiv double %136, %138
  %140 = load double, double* %6, align 8
  %141 = fcmp ogt double %139, %140
  br i1 %141, label %142, label %144

142:                                              ; preds = %133
  %143 = call i32 (i8*, ...) @printf(i8* getelementptr inbounds ([4 x i8], [4 x i8]* @.str.3, i64 0, i64 0))
  br label %146

144:                                              ; preds = %133
  %145 = call i32 (i8*, ...) @printf(i8* getelementptr inbounds ([3 x i8], [3 x i8]* @.str.4, i64 0, i64 0))
  br label %146

146:                                              ; preds = %144, %142
  store i32 0, i32* %1, align 4
  br label %147

147:                                              ; preds = %146, %104
  %148 = load i32, i32* %1, align 4
  ret i32 %148
}

declare dso_local i32 @__isoc99_scanf(i8*, ...) #1

; Function Attrs: nounwind readonly
declare dso_local i64 @strlen(i8*) #2

declare dso_local i32 @printf(i8*, ...) #1


!llvm.module.flags = !{!0}
!llvm.ident = !{!1}

!0 = !{i32 1, !"wchar_size", i32 4}
!1 = !{!"clang version 10.0.0-4ubuntu1 "}
